target datalayout = "e-m:e-p270:32:32-p271:32:32-p272:64:64-i64:64-i128:128-f80:128-n8:16:32:64-S128"
target triple = "x86_64-pc-linux-gnu"

%struct.ObjectAddress = type { i32, i32, i32 }
%struct.ForEachState = type { ptr, i32 }
%struct.CreateExtensionStmt = type { i32, ptr, i8, ptr }
%struct.List = type { i32, i32, i32, ptr, [0 x %union.ListCell] }
%union.ListCell = type { ptr }
%struct.DefElem = type { i32, ptr, ptr, ptr, i32, i32 }

@creating_extension = dso_local global i8 0, align 1
@.str = private unnamed_addr constant [30 x i8] c"extension \22%s\22 does not exist\00", align 1
@.str.1 = private unnamed_addr constant [12 x i8] c"extension.c\00", align 1
@__func__.get_extension_oid = private unnamed_addr constant [18 x i8] c"get_extension_oid\00", align 1
@.str.2 = private unnamed_addr constant [40 x i8] c"extension \22%s\22 already exists, skipping\00", align 1
@__func__.CreateExtension = private unnamed_addr constant [16 x i8] c"CreateExtension\00", align 1
@InvalidObjectAddress = external constant %struct.ObjectAddress, align 4
@.str.3 = private unnamed_addr constant [30 x i8] c"extension \22%s\22 already exists\00", align 1
@.str.4 = private unnamed_addr constant [41 x i8] c"nested CREATE EXTENSION is not supported\00", align 1
@.str.5 = private unnamed_addr constant [7 x i8] c"schema\00", align 1
@.str.6 = private unnamed_addr constant [12 x i8] c"new_version\00", align 1
@.str.7 = private unnamed_addr constant [8 x i8] c"cascade\00", align 1
@.str.8 = private unnamed_addr constant [24 x i8] c"unrecognized option: %s\00", align 1

; Function Attrs: inlinehint nounwind uwtable
define internal i64 @PointerGetDatum(ptr noundef %0) #3 {
  %2 = alloca ptr, align 8
  store ptr %0, ptr %2, align 8
  %3 = load ptr, ptr %2, align 8
  %4 = ptrtoint ptr %3 to i64
  ret i64 %4
}

; Function Attrs: inlinehint nounwind uwtable
define internal i64 @CStringGetDatum(ptr noundef %0) #3 {
  %2 = alloca ptr, align 8
  store ptr %0, ptr %2, align 8
  %3 = load ptr, ptr %2, align 8
  %4 = call i64 @PointerGetDatum(ptr noundef %3)
  ret i64 %4
}

; Function Attrs: nounwind uwtable
define dso_local i32 @get_extension_oid(ptr noundef %0, i1 noundef zeroext %1) #0 {
  %3 = alloca ptr, align 8
  %4 = alloca i8, align 1
  %5 = alloca i32, align 4
  store ptr %0, ptr %3, align 8
  %6 = zext i1 %1 to i8
  store i8 %6, ptr %4, align 1
  call void @llvm.lifetime.start.p0(i64 4, ptr %5) #12
  %7 = load ptr, ptr %3, align 8
  %8 = call i64 @CStringGetDatum(ptr noundef %7)
  %9 = call i32 @GetSysCacheOid(i32 noundef 27, i16 noundef signext 1, i64 noundef %8, i64 noundef 0, i64 noundef 0, i64 noundef 0)
  store i32 %9, ptr %5, align 4
  %10 = load i32, ptr %5, align 4
  %11 = icmp ne i32 %10, 0
  br i1 %11, label %28, label %12

12:                                               ; preds = %2
  %13 = load i8, ptr %4, align 1, !range !4, !noundef !5
  %14 = trunc i8 %13 to i1
  br i1 %14, label %28, label %15

15:                                               ; preds = %12
  br label %16

16:                                               ; preds = %15
  br i1 true, label %17, label %19

17:                                               ; preds = %16
  %18 = call zeroext i1 @errstart_cold(i32 noundef 21, ptr noundef null) #13
  br i1 %18, label %21, label %25

19:                                               ; preds = %16
  %20 = call zeroext i1 @errstart(i32 noundef 21, ptr noundef null)
  br i1 %20, label %21, label %25

21:                                               ; preds = %19, %17
  %22 = call i32 @errcode(i32 noundef 67137668)
  %23 = load ptr, ptr %3, align 8
  %24 = call i32 (ptr, ...) @errmsg(ptr noundef @.str, ptr noundef %23)
  call void @errfinish(ptr noundef @.str.1, i32 noundef 169, ptr noundef @__func__.get_extension_oid)
  br label %25

25:                                               ; preds = %21, %19, %17
  unreachable

26:                                               ; No predecessors!
  br label %27

27:                                               ; preds = %26
  br label %28

28:                                               ; preds = %27, %12, %2
  %29 = load i32, ptr %5, align 4
  call void @llvm.lifetime.end.p0(i64 4, ptr %5) #12
  ret i32 %29
}

; Function Attrs: nounwind uwtable
define dso_local { i64, i32 } @CreateExtension(ptr noundef %0, ptr noundef %1) #0 {
  %3 = alloca %struct.ObjectAddress, align 4
  %4 = alloca ptr, align 8
  %5 = alloca ptr, align 8
  %6 = alloca ptr, align 8
  %7 = alloca ptr, align 8
  %8 = alloca ptr, align 8
  %9 = alloca ptr, align 8
  %10 = alloca ptr, align 8
  %11 = alloca i8, align 1
  %12 = alloca ptr, align 8
  %13 = alloca i32, align 4
  %14 = alloca %struct.ForEachState, align 8
  %15 = alloca ptr, align 8
  %16 = alloca { i64, i32 }, align 8
  %17 = alloca { i64, i32 }, align 8
  store ptr %0, ptr %4, align 8
  store ptr %1, ptr %5, align 8
  call void @llvm.lifetime.start.p0(i64 8, ptr %6) #12
  store ptr null, ptr %6, align 8
  call void @llvm.lifetime.start.p0(i64 8, ptr %7) #12
  store ptr null, ptr %7, align 8
  call void @llvm.lifetime.start.p0(i64 8, ptr %8) #12
  store ptr null, ptr %8, align 8
  call void @llvm.lifetime.start.p0(i64 8, ptr %9) #12
  store ptr null, ptr %9, align 8
  call void @llvm.lifetime.start.p0(i64 8, ptr %10) #12
  store ptr null, ptr %10, align 8
  call void @llvm.lifetime.start.p0(i64 1, ptr %11) #12
  store i8 0, ptr %11, align 1
  call void @llvm.lifetime.start.p0(i64 8, ptr %12) #12
  %18 = load ptr, ptr %5, align 8
  %19 = getelementptr inbounds nuw %struct.CreateExtensionStmt, ptr %18, i32 0, i32 1
  %20 = load ptr, ptr %19, align 8
  call void @check_valid_extension_name(ptr noundef %20)
  %21 = load ptr, ptr %5, align 8
  %22 = getelementptr inbounds nuw %struct.CreateExtensionStmt, ptr %21, i32 0, i32 1
  %23 = load ptr, ptr %22, align 8
  %24 = call i32 @get_extension_oid(ptr noundef %23, i1 noundef zeroext true)
  %25 = icmp ne i32 %24, 0
  br i1 %25, label %26, label %62

26:                                               ; preds = %2
  %27 = load ptr, ptr %5, align 8
  %28 = getelementptr inbounds nuw %struct.CreateExtensionStmt, ptr %27, i32 0, i32 2
  %29 = load i8, ptr %28, align 8, !range !4, !noundef !5
  %30 = trunc i8 %29 to i1
  br i1 %30, label %31, label %46

31:                                               ; preds = %26
  br label %32

32:                                               ; preds = %31
  br i1 false, label %33, label %35

33:                                               ; preds = %32
  %34 = call zeroext i1 @errstart_cold(i32 noundef 18, ptr noundef null) #13
  br i1 %34, label %37, label %43

35:                                               ; preds = %32
  %36 = call zeroext i1 @errstart(i32 noundef 18, ptr noundef null)
  br i1 %36, label %37, label %43

37:                                               ; preds = %35, %33
  %38 = call i32 @errcode(i32 noundef 290948)
  %39 = load ptr, ptr %5, align 8
  %40 = getelementptr inbounds nuw %struct.CreateExtensionStmt, ptr %39, i32 0, i32 1
  %41 = load ptr, ptr %40, align 8
  %42 = call i32 (ptr, ...) @errmsg(ptr noundef @.str.2, ptr noundef %41)
  call void @errfinish(ptr noundef @.str.1, i32 noundef 1905, ptr noundef @__func__.CreateExtension)
  br label %43

43:                                               ; preds = %37, %35, %33
  br label %44

44:                                               ; preds = %43
  br label %45

45:                                               ; preds = %44
  call void @llvm.memcpy.p0.p0.i64(ptr align 4 %3, ptr align 4 @InvalidObjectAddress, i64 12, i1 false)
  store i32 1, ptr %13, align 4
  br label %191

46:                                               ; preds = %26
  br label %47

47:                                               ; preds = %46
  br i1 true, label %48, label %50

48:                                               ; preds = %47
  %49 = call zeroext i1 @errstart_cold(i32 noundef 21, ptr noundef null) #13
  br i1 %49, label %52, label %58

50:                                               ; preds = %47
  %51 = call zeroext i1 @errstart(i32 noundef 21, ptr noundef null)
  br i1 %51, label %52, label %58

52:                                               ; preds = %50, %48
  %53 = call i32 @errcode(i32 noundef 290948)
  %54 = load ptr, ptr %5, align 8
  %55 = getelementptr inbounds nuw %struct.CreateExtensionStmt, ptr %54, i32 0, i32 1
  %56 = load ptr, ptr %55, align 8
  %57 = call i32 (ptr, ...) @errmsg(ptr noundef @.str.3, ptr noundef %56)
  call void @errfinish(ptr noundef @.str.1, i32 noundef 1912, ptr noundef @__func__.CreateExtension)
  br label %58

58:                                               ; preds = %52, %50, %48
  unreachable

59:                                               ; No predecessors!
  br label %60

60:                                               ; preds = %59
  br label %61

61:                                               ; preds = %60
  br label %62

62:                                               ; preds = %61, %2
  %63 = load i8, ptr @creating_extension, align 1, !range !4, !noundef !5
  %64 = trunc i8 %63 to i1
  br i1 %64, label %65, label %77

65:                                               ; preds = %62
  br label %66

66:                                               ; preds = %65
  br i1 true, label %67, label %69

67:                                               ; preds = %66
  %68 = call zeroext i1 @errstart_cold(i32 noundef 21, ptr noundef null) #13
  br i1 %68, label %71, label %74

69:                                               ; preds = %66
  %70 = call zeroext i1 @errstart(i32 noundef 21, ptr noundef null)
  br i1 %70, label %71, label %74

71:                                               ; preds = %69, %67
  %72 = call i32 @errcode(i32 noundef 1088)
  %73 = call i32 (ptr, ...) @errmsg(ptr noundef @.str.4)
  call void @errfinish(ptr noundef @.str.1, i32 noundef 1922, ptr noundef @__func__.CreateExtension)
  br label %74

74:                                               ; preds = %71, %69, %67
  unreachable

75:                                               ; No predecessors!
  br label %76

76:                                               ; preds = %75
  br label %77

77:                                               ; preds = %76, %62
  call void @llvm.lifetime.start.p0(i64 16, ptr %14) #12
  %78 = getelementptr inbounds nuw %struct.ForEachState, ptr %14, i32 0, i32 0
  %79 = load ptr, ptr %5, align 8
  %80 = getelementptr inbounds nuw %struct.CreateExtensionStmt, ptr %79, i32 0, i32 3
  %81 = load ptr, ptr %80, align 8
  store ptr %81, ptr %78, align 8
  %82 = getelementptr inbounds nuw %struct.ForEachState, ptr %14, i32 0, i32 1
  store i32 0, ptr %82, align 8
  %83 = getelementptr i8, ptr %14, i64 12
  call void @llvm.memset.p0.i64(ptr align 4 %83, i8 0, i64 4, i1 false)
  br label %84

84:                                               ; preds = %178, %77
  %85 = getelementptr inbounds nuw %struct.ForEachState, ptr %14, i32 0, i32 0
  %86 = load ptr, ptr %85, align 8
  %87 = icmp ne ptr %86, null
  br i1 %87, label %88, label %105

88:                                               ; preds = %84
  %89 = getelementptr inbounds nuw %struct.ForEachState, ptr %14, i32 0, i32 1
  %90 = load i32, ptr %89, align 8
  %91 = getelementptr inbounds nuw %struct.ForEachState, ptr %14, i32 0, i32 0
  %92 = load ptr, ptr %91, align 8
  %93 = getelementptr inbounds nuw %struct.List, ptr %92, i32 0, i32 1
  %94 = load i32, ptr %93, align 4
  %95 = icmp slt i32 %90, %94
  br i1 %95, label %96, label %105

96:                                               ; preds = %88
  %97 = getelementptr inbounds nuw %struct.ForEachState, ptr %14, i32 0, i32 0
  %98 = load ptr, ptr %97, align 8
  %99 = getelementptr inbounds nuw %struct.List, ptr %98, i32 0, i32 3
  %100 = load ptr, ptr %99, align 8
  %101 = getelementptr inbounds nuw %struct.ForEachState, ptr %14, i32 0, i32 1
  %102 = load i32, ptr %101, align 8
  %103 = sext i32 %102 to i64
  %104 = getelementptr inbounds %union.ListCell, ptr %100, i64 %103
  store ptr %104, ptr %12, align 8
  br label %106

105:                                              ; preds = %88, %84
  store ptr null, ptr %12, align 8
  br label %106

106:                                              ; preds = %105, %96
  %107 = phi i32 [ 1, %96 ], [ 0, %105 ]
  %108 = icmp ne i32 %107, 0
  br i1 %108, label %110, label %109

109:                                              ; preds = %106
  store i32 8, ptr %13, align 4
  call void @llvm.lifetime.end.p0(i64 16, ptr %14) #12
  br label %182

110:                                              ; preds = %106
  call void @llvm.lifetime.start.p0(i64 8, ptr %15) #12
  %111 = load ptr, ptr %12, align 8
  %112 = load ptr, ptr %111, align 8
  store ptr %112, ptr %15, align 8
  %113 = load ptr, ptr %15, align 8
  %114 = getelementptr inbounds nuw %struct.DefElem, ptr %113, i32 0, i32 2
  %115 = load ptr, ptr %114, align 8
  %116 = call i32 @strcmp(ptr noundef %115, ptr noundef @.str.5) #14
  %117 = icmp eq i32 %116, 0
  br i1 %117, label %118, label %128

118:                                              ; preds = %110
  %119 = load ptr, ptr %6, align 8
  %120 = icmp ne ptr %119, null
  br i1 %120, label %121, label %124

121:                                              ; preds = %118
  %122 = load ptr, ptr %15, align 8
  %123 = load ptr, ptr %4, align 8
  call void @errorConflictingDefElem(ptr noundef %122, ptr noundef %123) #15
  unreachable

124:                                              ; preds = %118
  %125 = load ptr, ptr %15, align 8
  store ptr %125, ptr %6, align 8
  %126 = load ptr, ptr %6, align 8
  %127 = call ptr @defGetString(ptr noundef %126)
  store ptr %127, ptr %9, align 8
  br label %177

128:                                              ; preds = %110
  %129 = load ptr, ptr %15, align 8
  %130 = getelementptr inbounds nuw %struct.DefElem, ptr %129, i32 0, i32 2
  %131 = load ptr, ptr %130, align 8
  %132 = call i32 @strcmp(ptr noundef %131, ptr noundef @.str.6) #14
  %133 = icmp eq i32 %132, 0
  br i1 %133, label %134, label %144

134:                                              ; preds = %128
  %135 = load ptr, ptr %7, align 8
  %136 = icmp ne ptr %135, null
  br i1 %136, label %137, label %140

137:                                              ; preds = %134
  %138 = load ptr, ptr %15, align 8
  %139 = load ptr, ptr %4, align 8
  call void @errorConflictingDefElem(ptr noundef %138, ptr noundef %139) #15
  unreachable

140:                                              ; preds = %134
  %141 = load ptr, ptr %15, align 8
  store ptr %141, ptr %7, align 8
  %142 = load ptr, ptr %7, align 8
  %143 = call ptr @defGetString(ptr noundef %142)
  store ptr %143, ptr %10, align 8
  br label %176

144:                                              ; preds = %128
  %145 = load ptr, ptr %15, align 8
  %146 = getelementptr inbounds nuw %struct.DefElem, ptr %145, i32 0, i32 2
  %147 = load ptr, ptr %146, align 8
  %148 = call i32 @strcmp(ptr noundef %147, ptr noundef @.str.7) #14
  %149 = icmp eq i32 %148, 0
  br i1 %149, label %150, label %161

150:                                              ; preds = %144
  %151 = load ptr, ptr %8, align 8
  %152 = icmp ne ptr %151, null
  br i1 %152, label %153, label %156

153:                                              ; preds = %150
  %154 = load ptr, ptr %15, align 8
  %155 = load ptr, ptr %4, align 8
  call void @errorConflictingDefElem(ptr noundef %154, ptr noundef %155) #15
  unreachable

156:                                              ; preds = %150
  %157 = load ptr, ptr %15, align 8
  store ptr %157, ptr %8, align 8
  %158 = load ptr, ptr %8, align 8
  %159 = call zeroext i1 @defGetBoolean(ptr noundef %158)
  %160 = zext i1 %159 to i8
  store i8 %160, ptr %11, align 1
  br label %175

161:                                              ; preds = %144
  br label %162

162:                                              ; preds = %161
  br i1 true, label %163, label %165

163:                                              ; preds = %162
  %164 = call zeroext i1 @errstart_cold(i32 noundef 21, ptr noundef null) #13
  br i1 %164, label %167, label %172

165:                                              ; preds = %162
  %166 = call zeroext i1 @errstart(i32 noundef 21, ptr noundef null)
  br i1 %166, label %167, label %172

167:                                              ; preds = %165, %163
  %168 = load ptr, ptr %15, align 8
  %169 = getelementptr inbounds nuw %struct.DefElem, ptr %168, i32 0, i32 2
  %170 = load ptr, ptr %169, align 8
  %171 = call i32 (ptr, ...) @errmsg_internal(ptr noundef @.str.8, ptr noundef %170)
  call void @errfinish(ptr noundef @.str.1, i32 noundef 1951, ptr noundef @__func__.CreateExtension)
  br label %172

172:                                              ; preds = %167, %165, %163
  unreachable

173:                                              ; No predecessors!
  br label %174

174:                                              ; preds = %173
  br label %175

175:                                              ; preds = %174, %156
  br label %176

176:                                              ; preds = %175, %140
  br label %177

177:                                              ; preds = %176, %124
  call void @llvm.lifetime.end.p0(i64 8, ptr %15) #12
  br label %178

178:                                              ; preds = %177
  %179 = getelementptr inbounds nuw %struct.ForEachState, ptr %14, i32 0, i32 1
  %180 = load i32, ptr %179, align 8
  %181 = add i32 %180, 1
  store i32 %181, ptr %179, align 8
  br label %84, !llvm.loop !6

182:                                              ; preds = %109
  %183 = load ptr, ptr %5, align 8
  %184 = getelementptr inbounds nuw %struct.CreateExtensionStmt, ptr %183, i32 0, i32 1
  %185 = load ptr, ptr %184, align 8
  %186 = load ptr, ptr %9, align 8
  %187 = load ptr, ptr %10, align 8
  %188 = load i8, ptr %11, align 1, !range !4, !noundef !5
  %189 = trunc i8 %188 to i1
  %190 = call { i64, i32 } @CreateExtensionInternal(ptr noundef %185, ptr noundef %186, ptr noundef %187, i1 noundef zeroext %189, ptr noundef null, i1 noundef zeroext true)
  store { i64, i32 } %190, ptr %16, align 8
  call void @llvm.memcpy.p0.p0.i64(ptr align 4 %3, ptr align 8 %16, i64 12, i1 false)
  store i32 1, ptr %13, align 4
  br label %191

191:                                              ; preds = %182, %45
  call void @llvm.lifetime.end.p0(i64 8, ptr %12) #12
  call void @llvm.lifetime.end.p0(i64 1, ptr %11) #12
  call void @llvm.lifetime.end.p0(i64 8, ptr %10) #12
  call void @llvm.lifetime.end.p0(i64 8, ptr %9) #12
  call void @llvm.lifetime.end.p0(i64 8, ptr %8) #12
  call void @llvm.lifetime.end.p0(i64 8, ptr %7) #12
  call void @llvm.lifetime.end.p0(i64 8, ptr %6) #12
  call void @llvm.memcpy.p0.p0.i64(ptr align 8 %17, ptr align 4 %3, i64 12, i1 false)
  %192 = load { i64, i32 }, ptr %17, align 8
  ret { i64, i32 } %192
}