; Function Attrs: nounwind uwtable
define dso_local { i64, i32 } @CreateExtension(ptr noundef %0, ptr noundef readonly captures(none) %1) local_unnamed_addr #0 {
  %3 = getelementptr inbounds nuw i8, ptr %1, i64 8
  %4 = load ptr, ptr %3, align 8
  tail call fastcc void @check_valid_extension_name(ptr noundef %4)
  %5 = load ptr, ptr %3, align 8
  %6 = ptrtoint ptr %5 to i64
  %7 = tail call i32 @GetSysCacheOid(i32 noundef 27, i16 noundef signext 1, i64 noundef %6, i64 noundef 0, i64 noundef 0, i64 noundef 0) #15
  %.not = icmp eq i32 %7, 0
  br i1 %.not, label %26, label %8

8:                                                ; preds = %2
  %9 = getelementptr inbounds nuw i8, ptr %1, i64 16
  %10 = load i8, ptr %9, align 8, !range !4, !noundef !5
  %11 = trunc nuw i8 %10 to i1
  br i1 %11, label %12, label %21

12:                                               ; preds = %8
  %13 = tail call zeroext i1 @errstart(i32 noundef 18, ptr noundef null) #15
  br i1 %13, label %14, label %18

14:                                               ; preds = %12
  %15 = tail call i32 @errcode(i32 noundef 290948) #15
  %16 = load ptr, ptr %3, align 8
  %17 = tail call i32 (ptr, ...) @errmsg(ptr noundef nonnull @.str.2, ptr noundef %16) #15
  tail call void @errfinish(ptr noundef nonnull @.str.1, i32 noundef 1905, ptr noundef nonnull @__func__.CreateExtension) #15
  br label %18

18:                                               ; preds = %14, %12
  %.sroa.036.0.copyload = load i64, ptr @InvalidObjectAddress, align 4
  %.sroa.3.0.copyload = load i32, ptr getelementptr inbounds nuw (i8, ptr @InvalidObjectAddress, i64 8), align 4
  %19 = insertvalue { i64, i32 } poison, i64 %.sroa.036.0.copyload, 0
  %20 = insertvalue { i64, i32 } %19, i32 %.sroa.3.0.copyload, 1
  br label %72

21:                                               ; preds = %8
  %22 = tail call zeroext i1 @errstart_cold(i32 noundef 21, ptr noundef null) #16
  tail call void @llvm.assume(i1 %22)
  %23 = tail call i32 @errcode(i32 noundef 290948) #15
  %24 = load ptr, ptr %3, align 8
  %25 = tail call i32 (ptr, ...) @errmsg(ptr noundef nonnull @.str.3, ptr noundef %24) #15
  tail call void @errfinish(ptr noundef nonnull @.str.1, i32 noundef 1912, ptr noundef nonnull @__func__.CreateExtension) #15
  unreachable

26:                                               ; preds = %2
  %27 = load i8, ptr @creating_extension, align 1, !range !4, !noundef !5
  %28 = trunc nuw i8 %27 to i1
  br i1 %28, label %29, label %33

29:                                               ; preds = %26
  %30 = tail call zeroext i1 @errstart_cold(i32 noundef 21, ptr noundef null) #16
  tail call void @llvm.assume(i1 %30)
  %31 = tail call i32 @errcode(i32 noundef 1088) #15
  %32 = tail call i32 (ptr, ...) @errmsg(ptr noundef nonnull @.str.4) #15
  tail call void @errfinish(ptr noundef nonnull @.str.1, i32 noundef 1922, ptr noundef nonnull @__func__.CreateExtension) #15
  unreachable

33:                                               ; preds = %26
  %34 = getelementptr inbounds nuw i8, ptr %1, i64 24
  %35 = load ptr, ptr %34, align 8
  %.not49 = icmp eq ptr %35, null
  br i1 %.not49, label %._crit_edge, label %.lr.ph

.lr.ph:                                           ; preds = %33
  %36 = getelementptr inbounds nuw i8, ptr %35, i64 4
  %37 = getelementptr inbounds nuw i8, ptr %35, i64 16
  %38 = load i32, ptr %36, align 4
  %39 = icmp sgt i32 %38, 0
  br i1 %39, label %.lr.ph111, label %._crit_edge

._crit_edge:                                      ; preds = %68, %.lr.ph, %33
  %.046.lcssa = phi i1 [ false, %33 ], [ false, %.lr.ph ], [ %.147, %68 ]
  %.043.lcssa = phi ptr [ null, %33 ], [ null, %.lr.ph ], [ %.144, %68 ]
  %.041.lcssa = phi ptr [ null, %33 ], [ null, %.lr.ph ], [ %.142, %68 ]
  %40 = load ptr, ptr %3, align 8
  %41 = tail call fastcc { i64, i32 } @CreateExtensionInternal(ptr noundef %40, ptr noundef %.041.lcssa, ptr noundef %.043.lcssa, i1 noundef zeroext %.046.lcssa, ptr noundef null, i1 noundef zeroext true)
  br label %72

.lr.ph111:                                        ; preds = %.lr.ph, %68
  %indvars.iv = phi i64 [ %indvars.iv.next, %68 ], [ 0, %.lr.ph ]
  %.04676110 = phi i1 [ %.147, %68 ], [ false, %.lr.ph ]
  %.04377109 = phi ptr [ %.144, %68 ], [ null, %.lr.ph ]
  %.04179107 = phi ptr [ %.142, %68 ], [ null, %.lr.ph ]
  %.03980106 = phi ptr [ %.140, %68 ], [ null, %.lr.ph ]
  %.03781105 = phi ptr [ %.138, %68 ], [ null, %.lr.ph ]
  %.082104 = phi ptr [ %.1, %68 ], [ null, %.lr.ph ]
  %42 = load ptr, ptr %37, align 8
  %43 = getelementptr inbounds nuw %union.ListCell, ptr %42, i64 %indvars.iv
  %44 = load ptr, ptr %43, align 8
  %45 = getelementptr inbounds nuw i8, ptr %44, i64 16
  %46 = load ptr, ptr %45, align 8
  %47 = tail call i32 @strcmp(ptr noundef nonnull dereferenceable(1) %46, ptr noundef nonnull dereferenceable(7) @.str.5) #17
  %48 = icmp eq i32 %47, 0
  br i1 %48, label %49, label %52

49:                                               ; preds = %.lr.ph111
  %.not53 = icmp eq ptr %.082104, null
  br i1 %.not53, label %50, label %.split99

.split99:                                         ; preds = %49
  tail call void @errorConflictingDefElem(ptr noundef nonnull %44, ptr noundef %0) #18
  unreachable

50:                                               ; preds = %49
  %51 = tail call ptr @defGetString(ptr noundef nonnull %44) #15
  br label %68

52:                                               ; preds = %.lr.ph111
  %53 = tail call i32 @strcmp(ptr noundef nonnull dereferenceable(1) %46, ptr noundef nonnull dereferenceable(12) @.str.6) #17
  %54 = icmp eq i32 %53, 0
  br i1 %54, label %55, label %58

55:                                               ; preds = %52
  %.not52 = icmp eq ptr %.03781105, null
  br i1 %.not52, label %56, label %.split96

.split96:                                         ; preds = %55
  tail call void @errorConflictingDefElem(ptr noundef nonnull %44, ptr noundef %0) #18
  unreachable

56:                                               ; preds = %55
  %57 = tail call ptr @defGetString(ptr noundef nonnull %44) #15
  br label %68

58:                                               ; preds = %52
  %59 = tail call i32 @strcmp(ptr noundef nonnull dereferenceable(1) %46, ptr noundef nonnull dereferenceable(8) @.str.7) #17
  %60 = icmp eq i32 %59, 0
  br i1 %60, label %61, label %.split

61:                                               ; preds = %58
  %.not51 = icmp eq ptr %.03980106, null
  br i1 %.not51, label %62, label %.split93

.split93:                                         ; preds = %61
  tail call void @errorConflictingDefElem(ptr noundef nonnull %44, ptr noundef %0) #18
  unreachable

62:                                               ; preds = %61
  %63 = tail call zeroext i1 @defGetBoolean(ptr noundef nonnull %44) #15
  br label %68

.split:                                           ; preds = %58
  %64 = getelementptr inbounds nuw i8, ptr %44, i64 16
  %65 = tail call zeroext i1 @errstart_cold(i32 noundef 21, ptr noundef null) #16
  tail call void @llvm.assume(i1 %65)
  %66 = load ptr, ptr %64, align 8
  %67 = tail call i32 (ptr, ...) @errmsg_internal(ptr noundef nonnull @.str.8, ptr noundef %66) #15
  tail call void @errfinish(ptr noundef nonnull @.str.1, i32 noundef 1951, ptr noundef nonnull @__func__.CreateExtension) #15
  unreachable

68:                                               ; preds = %56, %62, %50
  %.147 = phi i1 [ %.04676110, %50 ], [ %.04676110, %56 ], [ %63, %62 ]
  %.144 = phi ptr [ %.04377109, %50 ], [ %57, %56 ], [ %.04377109, %62 ]
  %.142 = phi ptr [ %51, %50 ], [ %.04179107, %56 ], [ %.04179107, %62 ]
  %.140 = phi ptr [ %.03980106, %50 ], [ %.03980106, %56 ], [ %44, %62 ]
  %.138 = phi ptr [ %.03781105, %50 ], [ %44, %56 ], [ %.03781105, %62 ]
  %.1 = phi ptr [ %44, %50 ], [ %.082104, %56 ], [ %.082104, %62 ]
  %indvars.iv.next = add nuw nsw i64 %indvars.iv, 1
  %69 = load i32, ptr %36, align 4
  %70 = sext i32 %69 to i64
  %71 = icmp slt i64 %indvars.iv.next, %70
  br i1 %71, label %.lr.ph111, label %._crit_edge

72:                                               ; preds = %._crit_edge, %18
  %.fca.1.insert.merged = phi { i64, i32 } [ %20, %18 ], [ %41, %._crit_edge ]
  ret { i64, i32 } %.fca.1.insert.merged
}